
vulnerable2:     file format elf32-i386


Disassembly of section .init:

08048368 <_init>:
 8048368:	53                   	push   %ebx
 8048369:	83 ec 08             	sub    $0x8,%esp
 804836c:	e8 df 00 00 00       	call   8048450 <__x86.get_pc_thunk.bx>
 8048371:	81 c3 8f 1c 00 00    	add    $0x1c8f,%ebx
 8048377:	8b 83 fc ff ff ff    	mov    -0x4(%ebx),%eax
 804837d:	85 c0                	test   %eax,%eax
 804837f:	74 05                	je     8048386 <_init+0x1e>
 8048381:	e8 8a 00 00 00       	call   8048410 <fopen@plt+0x10>
 8048386:	83 c4 08             	add    $0x8,%esp
 8048389:	5b                   	pop    %ebx
 804838a:	c3                   	ret    

Disassembly of section .plt:

08048390 <printf@plt-0x10>:
 8048390:	ff 35 04 a0 04 08    	pushl  0x804a004
 8048396:	ff 25 08 a0 04 08    	jmp    *0x804a008
 804839c:	00 00                	add    %al,(%eax)
	...

080483a0 <printf@plt>:
 80483a0:	ff 25 0c a0 04 08    	jmp    *0x804a00c
 80483a6:	68 00 00 00 00       	push   $0x0
 80483ab:	e9 e0 ff ff ff       	jmp    8048390 <_init+0x28>

080483b0 <fclose@plt>:
 80483b0:	ff 25 10 a0 04 08    	jmp    *0x804a010
 80483b6:	68 08 00 00 00       	push   $0x8
 80483bb:	e9 d0 ff ff ff       	jmp    8048390 <_init+0x28>

080483c0 <fread@plt>:
 80483c0:	ff 25 14 a0 04 08    	jmp    *0x804a014
 80483c6:	68 10 00 00 00       	push   $0x10
 80483cb:	e9 c0 ff ff ff       	jmp    8048390 <_init+0x28>

080483d0 <getenv@plt>:
 80483d0:	ff 25 18 a0 04 08    	jmp    *0x804a018
 80483d6:	68 18 00 00 00       	push   $0x18
 80483db:	e9 b0 ff ff ff       	jmp    8048390 <_init+0x28>

080483e0 <puts@plt>:
 80483e0:	ff 25 1c a0 04 08    	jmp    *0x804a01c
 80483e6:	68 20 00 00 00       	push   $0x20
 80483eb:	e9 a0 ff ff ff       	jmp    8048390 <_init+0x28>

080483f0 <__libc_start_main@plt>:
 80483f0:	ff 25 20 a0 04 08    	jmp    *0x804a020
 80483f6:	68 28 00 00 00       	push   $0x28
 80483fb:	e9 90 ff ff ff       	jmp    8048390 <_init+0x28>

08048400 <fopen@plt>:
 8048400:	ff 25 24 a0 04 08    	jmp    *0x804a024
 8048406:	68 30 00 00 00       	push   $0x30
 804840b:	e9 80 ff ff ff       	jmp    8048390 <_init+0x28>

Disassembly of section .plt.got:

08048410 <.plt.got>:
 8048410:	ff 25 fc 9f 04 08    	jmp    *0x8049ffc
 8048416:	66 90                	xchg   %ax,%ax

Disassembly of section .text:

08048420 <_start>:
 8048420:	31 ed                	xor    %ebp,%ebp
 8048422:	5e                   	pop    %esi
 8048423:	89 e1                	mov    %esp,%ecx
 8048425:	83 e4 f0             	and    $0xfffffff0,%esp
 8048428:	50                   	push   %eax
 8048429:	54                   	push   %esp
 804842a:	52                   	push   %edx
 804842b:	68 20 86 04 08       	push   $0x8048620
 8048430:	68 c0 85 04 08       	push   $0x80485c0
 8048435:	51                   	push   %ecx
 8048436:	56                   	push   %esi
 8048437:	68 3b 85 04 08       	push   $0x804853b
 804843c:	e8 af ff ff ff       	call   80483f0 <__libc_start_main@plt>
 8048441:	f4                   	hlt    
 8048442:	66 90                	xchg   %ax,%ax
 8048444:	66 90                	xchg   %ax,%ax
 8048446:	66 90                	xchg   %ax,%ax
 8048448:	66 90                	xchg   %ax,%ax
 804844a:	66 90                	xchg   %ax,%ax
 804844c:	66 90                	xchg   %ax,%ax
 804844e:	66 90                	xchg   %ax,%ax

08048450 <__x86.get_pc_thunk.bx>:
 8048450:	8b 1c 24             	mov    (%esp),%ebx
 8048453:	c3                   	ret    
 8048454:	66 90                	xchg   %ax,%ax
 8048456:	66 90                	xchg   %ax,%ax
 8048458:	66 90                	xchg   %ax,%ax
 804845a:	66 90                	xchg   %ax,%ax
 804845c:	66 90                	xchg   %ax,%ax
 804845e:	66 90                	xchg   %ax,%ax

08048460 <deregister_tm_clones>:
 8048460:	b8 33 a0 04 08       	mov    $0x804a033,%eax
 8048465:	2d 30 a0 04 08       	sub    $0x804a030,%eax
 804846a:	83 f8 06             	cmp    $0x6,%eax
 804846d:	76 1a                	jbe    8048489 <deregister_tm_clones+0x29>
 804846f:	b8 00 00 00 00       	mov    $0x0,%eax
 8048474:	85 c0                	test   %eax,%eax
 8048476:	74 11                	je     8048489 <deregister_tm_clones+0x29>
 8048478:	55                   	push   %ebp
 8048479:	89 e5                	mov    %esp,%ebp
 804847b:	83 ec 14             	sub    $0x14,%esp
 804847e:	68 30 a0 04 08       	push   $0x804a030
 8048483:	ff d0                	call   *%eax
 8048485:	83 c4 10             	add    $0x10,%esp
 8048488:	c9                   	leave  
 8048489:	f3 c3                	repz ret 
 804848b:	90                   	nop
 804848c:	8d 74 26 00          	lea    0x0(%esi,%eiz,1),%esi

08048490 <register_tm_clones>:
 8048490:	b8 30 a0 04 08       	mov    $0x804a030,%eax
 8048495:	2d 30 a0 04 08       	sub    $0x804a030,%eax
 804849a:	c1 f8 02             	sar    $0x2,%eax
 804849d:	89 c2                	mov    %eax,%edx
 804849f:	c1 ea 1f             	shr    $0x1f,%edx
 80484a2:	01 d0                	add    %edx,%eax
 80484a4:	d1 f8                	sar    %eax
 80484a6:	74 1b                	je     80484c3 <register_tm_clones+0x33>
 80484a8:	ba 00 00 00 00       	mov    $0x0,%edx
 80484ad:	85 d2                	test   %edx,%edx
 80484af:	74 12                	je     80484c3 <register_tm_clones+0x33>
 80484b1:	55                   	push   %ebp
 80484b2:	89 e5                	mov    %esp,%ebp
 80484b4:	83 ec 10             	sub    $0x10,%esp
 80484b7:	50                   	push   %eax
 80484b8:	68 30 a0 04 08       	push   $0x804a030
 80484bd:	ff d2                	call   *%edx
 80484bf:	83 c4 10             	add    $0x10,%esp
 80484c2:	c9                   	leave  
 80484c3:	f3 c3                	repz ret 
 80484c5:	8d 74 26 00          	lea    0x0(%esi,%eiz,1),%esi
 80484c9:	8d bc 27 00 00 00 00 	lea    0x0(%edi,%eiz,1),%edi

080484d0 <__do_global_dtors_aux>:
 80484d0:	80 3d 30 a0 04 08 00 	cmpb   $0x0,0x804a030
 80484d7:	75 13                	jne    80484ec <__do_global_dtors_aux+0x1c>
 80484d9:	55                   	push   %ebp
 80484da:	89 e5                	mov    %esp,%ebp
 80484dc:	83 ec 08             	sub    $0x8,%esp
 80484df:	e8 7c ff ff ff       	call   8048460 <deregister_tm_clones>
 80484e4:	c6 05 30 a0 04 08 01 	movb   $0x1,0x804a030
 80484eb:	c9                   	leave  
 80484ec:	f3 c3                	repz ret 
 80484ee:	66 90                	xchg   %ax,%ax

080484f0 <frame_dummy>:
 80484f0:	b8 10 9f 04 08       	mov    $0x8049f10,%eax
 80484f5:	8b 10                	mov    (%eax),%edx
 80484f7:	85 d2                	test   %edx,%edx
 80484f9:	75 05                	jne    8048500 <frame_dummy+0x10>
 80484fb:	eb 93                	jmp    8048490 <register_tm_clones>
 80484fd:	8d 76 00             	lea    0x0(%esi),%esi
 8048500:	ba 00 00 00 00       	mov    $0x0,%edx
 8048505:	85 d2                	test   %edx,%edx
 8048507:	74 f2                	je     80484fb <frame_dummy+0xb>
 8048509:	55                   	push   %ebp
 804850a:	89 e5                	mov    %esp,%ebp
 804850c:	83 ec 14             	sub    $0x14,%esp
 804850f:	50                   	push   %eax
 8048510:	ff d2                	call   *%edx
 8048512:	83 c4 10             	add    $0x10,%esp
 8048515:	c9                   	leave  
 8048516:	e9 75 ff ff ff       	jmp    8048490 <register_tm_clones>

0804851b <bof>:
 804851b:	55                   	push   %ebp
 804851c:	89 e5                	mov    %esp,%ebp
 804851e:	83 ec 28             	sub    $0x28,%esp
 8048521:	ff 75 08             	pushl  0x8(%ebp)
 8048524:	6a 3c                	push   $0x3c
 8048526:	6a 01                	push   $0x1
 8048528:	8d 45 e0             	lea    -0x20(%ebp),%eax
 804852b:	50                   	push   %eax
 804852c:	e8 8f fe ff ff       	call   80483c0 <fread@plt>
 8048531:	83 c4 10             	add    $0x10,%esp
 8048534:	b8 01 00 00 00       	mov    $0x1,%eax
 8048539:	c9                   	leave  
 804853a:	c3                   	ret    

0804853b <main>:
 804853b:	8d 4c 24 04          	lea    0x4(%esp),%ecx
 804853f:	83 e4 f0             	and    $0xfffffff0,%esp
 8048542:	ff 71 fc             	pushl  -0x4(%ecx)
 8048545:	55                   	push   %ebp
 8048546:	89 e5                	mov    %esp,%ebp
 8048548:	51                   	push   %ecx
 8048549:	83 ec 14             	sub    $0x14,%esp
 804854c:	83 ec 0c             	sub    $0xc,%esp
 804854f:	68 40 86 04 08       	push   $0x8048640
 8048554:	e8 77 fe ff ff       	call   80483d0 <getenv@plt>
 8048559:	83 c4 10             	add    $0x10,%esp
 804855c:	83 ec 08             	sub    $0x8,%esp
 804855f:	50                   	push   %eax
 8048560:	68 46 86 04 08       	push   $0x8048646
 8048565:	e8 36 fe ff ff       	call   80483a0 <printf@plt>
 804856a:	83 c4 10             	add    $0x10,%esp
 804856d:	83 ec 08             	sub    $0x8,%esp
 8048570:	68 4b 86 04 08       	push   $0x804864b
 8048575:	68 4d 86 04 08       	push   $0x804864d
 804857a:	e8 81 fe ff ff       	call   8048400 <fopen@plt>
 804857f:	83 c4 10             	add    $0x10,%esp
 8048582:	89 45 f4             	mov    %eax,-0xc(%ebp)
 8048585:	83 ec 0c             	sub    $0xc,%esp
 8048588:	ff 75 f4             	pushl  -0xc(%ebp)
 804858b:	e8 8b ff ff ff       	call   804851b <bof>
 8048590:	83 c4 10             	add    $0x10,%esp
 8048593:	83 ec 0c             	sub    $0xc,%esp
 8048596:	68 57 86 04 08       	push   $0x8048657
 804859b:	e8 40 fe ff ff       	call   80483e0 <puts@plt>
 80485a0:	83 c4 10             	add    $0x10,%esp
 80485a3:	83 ec 0c             	sub    $0xc,%esp
 80485a6:	ff 75 f4             	pushl  -0xc(%ebp)
 80485a9:	e8 02 fe ff ff       	call   80483b0 <fclose@plt>
 80485ae:	83 c4 10             	add    $0x10,%esp
 80485b1:	b8 01 00 00 00       	mov    $0x1,%eax
 80485b6:	8b 4d fc             	mov    -0x4(%ebp),%ecx
 80485b9:	c9                   	leave  
 80485ba:	8d 61 fc             	lea    -0x4(%ecx),%esp
 80485bd:	c3                   	ret    
 80485be:	66 90                	xchg   %ax,%ax

080485c0 <__libc_csu_init>:
 80485c0:	55                   	push   %ebp
 80485c1:	57                   	push   %edi
 80485c2:	56                   	push   %esi
 80485c3:	53                   	push   %ebx
 80485c4:	e8 87 fe ff ff       	call   8048450 <__x86.get_pc_thunk.bx>
 80485c9:	81 c3 37 1a 00 00    	add    $0x1a37,%ebx
 80485cf:	83 ec 0c             	sub    $0xc,%esp
 80485d2:	8b 6c 24 20          	mov    0x20(%esp),%ebp
 80485d6:	8d b3 0c ff ff ff    	lea    -0xf4(%ebx),%esi
 80485dc:	e8 87 fd ff ff       	call   8048368 <_init>
 80485e1:	8d 83 08 ff ff ff    	lea    -0xf8(%ebx),%eax
 80485e7:	29 c6                	sub    %eax,%esi
 80485e9:	c1 fe 02             	sar    $0x2,%esi
 80485ec:	85 f6                	test   %esi,%esi
 80485ee:	74 25                	je     8048615 <__libc_csu_init+0x55>
 80485f0:	31 ff                	xor    %edi,%edi
 80485f2:	8d b6 00 00 00 00    	lea    0x0(%esi),%esi
 80485f8:	83 ec 04             	sub    $0x4,%esp
 80485fb:	ff 74 24 2c          	pushl  0x2c(%esp)
 80485ff:	ff 74 24 2c          	pushl  0x2c(%esp)
 8048603:	55                   	push   %ebp
 8048604:	ff 94 bb 08 ff ff ff 	call   *-0xf8(%ebx,%edi,4)
 804860b:	83 c7 01             	add    $0x1,%edi
 804860e:	83 c4 10             	add    $0x10,%esp
 8048611:	39 f7                	cmp    %esi,%edi
 8048613:	75 e3                	jne    80485f8 <__libc_csu_init+0x38>
 8048615:	83 c4 0c             	add    $0xc,%esp
 8048618:	5b                   	pop    %ebx
 8048619:	5e                   	pop    %esi
 804861a:	5f                   	pop    %edi
 804861b:	5d                   	pop    %ebp
 804861c:	c3                   	ret    
 804861d:	8d 76 00             	lea    0x0(%esi),%esi

08048620 <__libc_csu_fini>:
 8048620:	f3 c3                	repz ret 

Disassembly of section .fini:

08048624 <_fini>:
 8048624:	53                   	push   %ebx
 8048625:	83 ec 08             	sub    $0x8,%esp
 8048628:	e8 23 fe ff ff       	call   8048450 <__x86.get_pc_thunk.bx>
 804862d:	81 c3 d3 19 00 00    	add    $0x19d3,%ebx
 8048633:	83 c4 08             	add    $0x8,%esp
 8048636:	5b                   	pop    %ebx
 8048637:	c3                   	ret    
